$ openssl x509 -text -noout < [CERTIFICATE]
Certificate:
    Data:
        Version: 3 (0x2)
        Serial Number:
            68:5f:ad:62:9f:e1:98:f6:f6:72:31:5b:b8:13:53:8b:21:30:f6:30
        Signature Algorithm: sha256WithRSAEncryption
        Issuer: C = US, ST = California, O = Google Inc, CN = Inter
        Validity
            Not Before: Aug  6 00:12:36 2019 GMT
            Not After : Aug  5 00:12:36 2020 GMT
        Subject: C = US, ST = California, O = Google Inc, CN = Device
        Subject Public Key Info:
            Public Key Algorithm: rsaEncryption
                RSA Public-Key: (2048 bit)
                Modulus:
                    00:cc:dd:4a:fe:7c:07:75:5e:0e:b5:cc:3e:2e:f4:
                    ec:e0:b9:76:c4:dc:8a:95:68:55:b6:fa:dc:9c:b3:
                    f3:08:55:fb:51:a6:32:1c:9e:a6:82:0b:f6:d6:b8:
                    3b:5f:09:ed:68:29:32:9b:e3:60:1a:e3:ce:39:10:
                    21:48:2a:c5:6c:2a:a2:f6:41:5e:74:35:0f:81:18:
                    3a:f7:83:1e:76:c2:d7:6e:47:88:95:a8:03:4e:d8:
                    8a:5f:d5:73:e4:e6:9c:af:9e:a1:1d:44:5d:8e:8b:
                    6d:fb:2b:03:c0:5f:8c:3f:a4:6d:46:f2:14:a6:b5:
                    7f:93:68:c7:f0:38:00:b5:7b:7e:a0:8c:d2:59:70:
                    c3:d0:04:12:75:d6:3c:11:96:54:8c:57:4c:31:cc:
                    ee:02:64:9d:16:44:e3:03:71:97:ef:97:69:dd:42:
                    36:36:d6:5b:73:c1:cc:b9:b6:e9:2a:8a:b6:48:7f:
                    69:58:4a:c5:a6:00:7d:c3:27:37:ef:09:95:0d:e5:
                    4b:47:1a:34:20:7c:37:7f:e3:a8:52:de:02:e7:23:
                    b7:22:35:82:ae:f4:9b:44:8b:56:10:e7:26:35:81:
                    09:8e:df:24:f3:9f:c8:94:3f:27:d1:37:b5:ee:1a:
                    52:3e:b1:5b:56:77:ba:ad:4c:5a:3e:e5:66:22:de:
                    d1:a3
                Exponent: 65537 (0x10001)
        X509v3 extensions:
            X509v3 Basic Constraints:
                CA:FALSE
            X509v3 Key Usage:
                Digital Signature, Key Encipherment
    Signature Algorithm: sha256WithRSAEncryption
         46:2e:b9:d5:31:c0:f6:8b:0f:f9:c7:83:f8:1b:d3:d9:76:92:
         e8:19:bb:06:47:8c:b4:ff:f9:e3:ba:c7:94:61:54:2e:94:7d:
         a8:c2:24:ec:11:92:19:b4:d4:46:5b:6e:3d:70:bc:8a:13:7c:
         96:81:05:31:65:83:80:1c:de:48:ae:f8:00:fa:7d:93:ba:cb:
         71:d7:56:3e:0f:07:c1:af:e0:4a:6c:f5:97:66:8c:20:a1:f4:
         09:4b:d5:eb:68:cc:87:84:66:3f:7f:f2:d2:86:6d:ca:af:25:
         68:67:79:c0:92:a5:d4:c1:06:4d:0c:2d:6b:82:7c:e9:76:0a:
         b6:67:1f:1d:dd:4f:f8:37:cc:1c:18:67:d6:c2:2e:f5:09:b0:
         ba:6f:2d:cb:04:64:db:3b:b7:19:a7:03:b1:9a:96:a4:d2:b2:
         c3:cf:5e:95:a6:10:0e:7c:c7:0d:f4:d8:0b:ee:79:62:3d:81:
         52:bd:9a:80:78:b8:56:26:ec:b1:df:ed:af:7b:94:d8:01:8d:
         a8:99:05:58:24:b0:b7:a8:f7:b9:51:0f:b3:db:f1:c9:f6:93:
         f4:ee:bf:18:90:46:bf:d8:3a:09:0a:4d:50:14:cd:0f:5b:d2:
         59:9f:a8:40:da:7b:73:17:71:9d:b7:01:df:27:ce:06:8f:81:
         01:61:77:d2
-----BEGIN CERTIFICATE-----
MIIDNzCCAh+gAwIBAgIUaF+tYp/hmPb2cjFbuBNTiyEw9jAwDQYJKoZIhvcNAQEL
BQAwRzELMAkGA1UEBhMCVVMxEzARBgNVBAgMCkNhbGlmb3JuaWExEzARBgNVBAoM
Ckdvb2dsZSBJbmMxDjAMBgNVBAMMBUludGVyMB4XDTE5MDgwNjAwMTIzNloXDTIw
MDgwNTAwMTIzNlowSDELMAkGA1UEBhMCVVMxEzARBgNVBAgMCkNhbGlmb3JuaWEx
EzARBgNVBAoMCkdvb2dsZSBJbmMxDzANBgNVBAMMBkRldmljZTCCASIwDQYJKoZI
hvcNAQEBBQADggEPADCCAQoCggEBAMzdSv58B3VeDrXMPi707OC5dsTcipVoVbb6
3Jyz8whV+1GmMhyepoIL9ta4O18J7WgpMpvjYBrjzjkQIUgqxWwqovZBXnQ1D4EY
OveDHnbC125HiJWoA07Yil/Vc+TmnK+eoR1EXY6LbfsrA8BfjD+kbUbyFKa1f5No
x/A4ALV7fqCM0llww9AEEnXWPBGWVIxXTDHM7gJknRZE4wNxl++Xad1CNjbWW3PB
zLm26SqKtkh/aVhKxaYAfcMnN+8JlQ3lS0caNCB8N3/jqFLeAucjtyI1gq70m0SL
VhDnJjWBCY7fJPOfyJQ/J9E3te4aUj6xW1Z3uq1MWj7lZiLe0aMCAwEAAaMaMBgw
CQYDVR0TBAIwADALBgNVHQ8EBAMCBaAwDQYJKoZIhvcNAQELBQADggEBAEYuudUx
wPaLD/nHg/gb09l2kugZuwZHjLT/+eO6x5RhVC6UfajCJOwRkhm01EZbbj1wvIoT
fJaBBTFlg4Ac3kiu+AD6fZO6y3HXVj4PB8Gv4Eps9ZdmjCCh9AlL1etozIeEZj9/
8tKGbcqvJWhnecCSpdTBBk0MLWuCfOl2CrZnHx3dT/g3zBwYZ9bCLvUJsLpvLcsE
ZNs7txmnA7GalqTSssPPXpWmEA58xw302AvueWI9gVK9moB4uFYm7LHf7a97lNgB
jaiZBVgksLeo97lRD7Pb8cn2k/TuvxiQRr/YOgkKTVAUzQ9b0lmfqEDae3MXcZ23
Ad8nzgaPgQFhd9I=
-----END CERTIFICATE-----

$ openssl x509 -text -noout < [CERTIFICATE]
Certificate:
    Data:
        Version: 3 (0x2)
        Serial Number:
            67:f3:b1:bc:a0:04:0a:32:36:e7:b5:79:a2:cb:3c:d7:19:dc:d9:70
        Signature Algorithm: sha256WithRSAEncryption
        Issuer: C = US, ST = CA, O = Google Inc, CN = Cast Root
        Validity
            Not Before: Aug  6 00:11:45 2019 GMT
            Not After : Aug  5 00:11:45 2020 GMT
        Subject: C = US, ST = California, O = Google Inc, CN = Inter
        Subject Public Key Info:
            Public Key Algorithm: rsaEncryption
                RSA Public-Key: (2048 bit)
                Modulus:
                    00:bd:e7:65:5f:0b:1a:0e:7a:00:d6:32:cf:31:4a:
                    e5:85:47:5d:d3:d3:96:0f:2c:52:67:28:67:32:57:
                    b0:71:b8:09:1e:91:42:a2:1d:36:8a:21:ae:ab:0b:
                    d1:30:6d:dd:32:a4:de:3e:cc:39:05:d2:ba:7d:c8:
                    c4:38:b4:36:db:75:ae:53:db:bd:19:3f:7e:2a:90:
                    d5:32:0f:c5:24:d0:33:9f:62:aa:fa:be:23:6a:8d:
                    6e:f8:8e:ed:73:c7:fd:c5:b0:7d:5e:dc:1d:1c:3d:
                    8d:22:5b:9a:0b:a2:7a:76:43:ed:13:ec:40:4f:0d:
                    cb:bb:cd:a8:e7:c9:d6:1c:6e:db:73:33:04:fa:c8:
                    95:3b:c9:0c:84:2a:c0:8d:cc:24:0f:5a:24:c7:3a:
                    61:12:da:68:99:f8:6c:f5:e6:8a:d2:7f:03:6e:86:
                    80:62:5c:d4:38:03:5c:a4:20:2d:58:c2:35:e3:e3:
                    54:9b:f9:e5:89:da:c8:ee:be:6d:cd:9f:98:ee:34:
                    9e:88:a3:01:db:e4:01:32:0d:42:34:c1:56:56:04:
                    0d:b1:ab:52:8e:d8:71:3e:36:a6:38:b5:77:ef:13:
                    fc:46:10:21:05:54:b9:2e:38:da:80:a0:0e:61:91:
                    e0:6f:cf:ca:3c:1f:d1:39:50:3d:39:7f:f1:ed:8a:
                    08:a1
                Exponent: 65537 (0x10001)
        X509v3 extensions:
            X509v3 Basic Constraints:
                CA:TRUE
            X509v3 Key Usage:
                Digital Signature, Key Encipherment, Certificate Sign
            X509v3 Name Constraints:
                Permitted:
                  DirName:C = US, ST = California, O = Google Inc

    Signature Algorithm: sha256WithRSAEncryption
         9e:f1:5f:93:ed:c2:b6:6a:a2:63:e0:cd:7b:d0:e5:e2:b7:47:
         63:4f:78:ec:87:51:90:4b:8d:73:f0:16:3e:06:ff:49:d7:56:
         14:e3:af:48:be:5b:66:b6:a8:54:b3:e3:5d:23:cd:ee:e2:15:
         34:8e:d1:0d:44:46:0c:7c:44:c5:db:94:36:c8:cf:88:fd:b1:
         0e:cd:fc:86:56:46:66:66:e0:5d:ae:2f:49:f9:87:f7:74:42:
         2a:31:f0:67:1b:35:fe:9f:17:4a:cd:91:5a:2b:f5:64:3f:e9:
         65:96:76:2f:33:68:c2:b8:bc:b1:06:e4:02:17:4a:ec:19:6a:
         31:49:bb:0e:b4:4f:cc:28:f9:9f:73:1f:ab:d4:46:24:3a:cb:
         d2:e2:58:4f:7f:ad:da:2d:34:a2:f7:fa:14:c4:ad:d0:73:8e:
         83:c6:36:cf:87:fc:d7:a7:57:47:0d:5e:0f:cb:f0:b2:59:e0:
         66:bf:01:88:04:ea:ba:29:bb:62:85:1e:05:42:0e:19:0f:02:
         42:b3:60:cd:23:ed:77:2e:48:18:5b:b9:52:47:0f:2c:fa:96:
         01:a6:9a:b8:ac:b9:76:f1:28:a0:8f:de:47:e6:61:6c:96:ee:
         42:ef:7f:13:71:df:72:4d:0d:00:3c:6e:56:8c:8c:61:ad:4e:
         9f:44:c4:a1
-----BEGIN CERTIFICATE-----
MIIDfzCCAmegAwIBAgIUZ/OxvKAECjI257V5oss81xnc2XAwDQYJKoZIhvcNAQEL
BQAwQzELMAkGA1UEBhMCVVMxCzAJBgNVBAgMAkNBMRMwEQYDVQQKDApHb29nbGUg
SW5jMRIwEAYDVQQDDAlDYXN0IFJvb3QwHhcNMTkwODA2MDAxMTQ1WhcNMjAwODA1
MDAxMTQ1WjBHMQswCQYDVQQGEwJVUzETMBEGA1UECAwKQ2FsaWZvcm5pYTETMBEG
A1UECgwKR29vZ2xlIEluYzEOMAwGA1UEAwwFSW50ZXIwggEiMA0GCSqGSIb3DQEB
AQUAA4IBDwAwggEKAoIBAQC952VfCxoOegDWMs8xSuWFR13T05YPLFJnKGcyV7Bx
uAkekUKiHTaKIa6rC9Ewbd0ypN4+zDkF0rp9yMQ4tDbbda5T270ZP34qkNUyD8Uk
0DOfYqr6viNqjW74ju1zx/3FsH1e3B0cPY0iW5oLonp2Q+0T7EBPDcu7zajnydYc
bttzMwT6yJU7yQyEKsCNzCQPWiTHOmES2miZ+Gz15orSfwNuhoBiXNQ4A1ykIC1Y
wjXj41Sb+eWJ2sjuvm3Nn5juNJ6IowHb5AEyDUI0wVZWBA2xq1KO2HE+NqY4tXfv
E/xGECEFVLkuONqAoA5hkeBvz8o8H9E5UD05f/HtigihAgMBAAGjZzBlMAwGA1Ud
EwQFMAMBAf8wCwYDVR0PBAQDAgKkMEgGA1UdHgRBMD+gPTA7pDkwNzELMAkGA1UE
BhMCVVMxEzARBgNVBAgMCkNhbGlmb3JuaWExEzARBgNVBAoMCkdvb2dsZSBJbmMw
DQYJKoZIhvcNAQELBQADggEBAJ7xX5PtwrZqomPgzXvQ5eK3R2NPeOyHUZBLjXPw
Fj4G/0nXVhTjr0i+W2a2qFSz410jze7iFTSO0Q1ERgx8RMXblDbIz4j9sQ7N/IZW
RmZm4F2uL0n5h/d0Qiox8GcbNf6fF0rNkVor9WQ/6WWWdi8zaMK4vLEG5AIXSuwZ
ajFJuw60T8wo+Z9zH6vURiQ6y9LiWE9/rdotNKL3+hTErdBzjoPGNs+H/NenV0cN
Xg/L8LJZ4Ga/AYgE6ropu2KFHgVCDhkPAkKzYM0j7XcuSBhbuVJHDyz6lgGmmris
uXbxKKCP3kfmYWyW7kLvfxNx33JNDQA8blaMjGGtTp9ExKE=
-----END CERTIFICATE-----

$ openssl x509 -text -noout < [CERTIFICATE]
Certificate:
    Data:
        Version: 3 (0x2)
        Serial Number:
            0c:f7:f8:07:6b:23:91:9c:08:17:a6:39:da:c4:b0:b8:9e:2f:54:cd
        Signature Algorithm: sha256WithRSAEncryption
        Issuer: C = US, ST = CA, O = Google Inc, CN = Cast Root
        Validity
            Not Before: Aug  5 23:24:01 2019 GMT
            Not After : Aug  4 23:24:01 2020 GMT
        Subject: C = US, ST = CA, O = Google Inc, CN = Cast Root
        Subject Public Key Info:
            Public Key Algorithm: rsaEncryption
                RSA Public-Key: (2048 bit)
                Modulus:
                    00:c3:15:2b:3c:2b:95:ef:fc:77:96:64:fa:91:d7:
                    60:31:1f:e0:f3:e1:cc:7f:69:1d:8a:35:1a:a6:5f:
                    4f:73:0f:c3:30:72:fc:48:9c:d0:eb:c3:38:02:ef:
                    5b:7b:8a:bc:6d:66:1c:2c:15:0a:90:34:53:67:1a:
                    d3:8b:cd:7e:9b:89:3b:8d:1a:33:aa:9b:a0:af:85:
                    44:04:2f:20:e3:8c:72:a7:2d:22:41:0e:d8:aa:5d:
                    8b:51:1b:34:c7:62:2b:ea:b4:63:73:59:13:8b:23:
                    fc:a4:0f:2e:c6:d9:0c:35:99:c1:99:ce:67:43:be:
                    fe:52:8f:42:00:8b:c6:17:1d:e0:d0:3c:07:1b:52:
                    45:84:fd:d5:e2:a1:b9:3c:53:dd:bd:83:d9:19:10:
                    5e:05:de:8a:96:5c:51:b8:71:58:f8:21:4b:0e:d1:
                    24:1c:d9:81:85:53:cb:42:93:80:43:0d:6b:83:11:
                    b3:4d:38:9e:97:fc:e4:e6:34:28:8f:23:31:5b:cb:
                    d2:4f:2a:0d:6a:f2:70:19:b1:75:f1:a7:ab:fb:f8:
                    3c:49:85:fb:fe:74:f5:87:4b:df:10:66:cb:fa:16:
                    92:ff:d4:af:b2:f9:b7:9e:15:0a:82:71:57:c7:2d:
                    3b:e1:0d:62:1c:f0:0e:82:7e:84:19:9e:b5:cd:31:
                    c5:7d
                Exponent: 65537 (0x10001)
        X509v3 extensions:
            X509v3 Subject Key Identifier:
                F7:C6:67:53:23:A4:9F:49:06:6D:20:CC:43:E3:08:10:2C:51:4E:DE
            X509v3 Authority Key Identifier:
                keyid:F7:C6:67:53:23:A4:9F:49:06:6D:20:CC:43:E3:08:10:2C:51:4E:DE

            X509v3 Basic Constraints: critical
                CA:TRUE
    Signature Algorithm: sha256WithRSAEncryption
         85:cd:49:71:41:4a:58:6c:5a:fc:d6:70:ee:8e:11:73:ea:2d:
         f8:5b:7d:a4:68:45:ea:7a:00:a0:7c:a8:a3:8e:67:2e:05:1b:
         b2:25:76:c2:85:75:cc:2d:80:13:1b:db:3c:8d:b3:2d:6f:36:
         a7:53:49:3b:26:79:2b:83:7e:d5:65:7c:1e:c7:66:3b:58:7f:
         5b:4f:22:ef:18:49:8e:38:df:86:ba:0b:55:7d:33:3b:0e:75:
         78:b2:4c:3b:90:b0:fd:2e:5d:0e:9a:df:39:45:d4:77:20:ee:
         fb:ec:28:76:f3:31:45:72:0e:5a:d6:df:31:40:a2:ae:7a:a3:
         f4:ab:e0:86:03:75:b1:74:a5:8d:45:df:94:3d:40:ca:f3:57:
         68:3a:a2:30:4d:81:e0:b4:d9:95:4d:1d:1f:a0:5d:c2:90:35:
         2d:0a:d8:3a:00:44:bd:d8:5e:c4:75:e8:b6:07:b8:4c:63:af:
         88:d5:a3:9d:b1:19:44:2e:86:4b:33:fb:a0:71:36:04:5a:cf:
         44:81:03:f3:15:cb:8f:4f:ca:83:60:db:8f:45:93:ba:84:44:
         23:c5:65:b9:58:ba:6b:3d:80:ea:fe:ba:01:33:28:b1:1b:d0:
         62:aa:14:66:37:d2:c1:95:ad:c6:bd:88:93:37:cf:29:89:04:
         0e:56:cf:33
-----BEGIN CERTIFICATE-----
MIIDZzCCAk+gAwIBAgIUDPf4B2sjkZwIF6Y52sSwuJ4vVM0wDQYJKoZIhvcNAQEL
BQAwQzELMAkGA1UEBhMCVVMxCzAJBgNVBAgMAkNBMRMwEQYDVQQKDApHb29nbGUg
SW5jMRIwEAYDVQQDDAlDYXN0IFJvb3QwHhcNMTkwODA1MjMyNDAxWhcNMjAwODA0
MjMyNDAxWjBDMQswCQYDVQQGEwJVUzELMAkGA1UECAwCQ0ExEzARBgNVBAoMCkdv
b2dsZSBJbmMxEjAQBgNVBAMMCUNhc3QgUm9vdDCCASIwDQYJKoZIhvcNAQEBBQAD
ggEPADCCAQoCggEBAMMVKzwrle/8d5Zk+pHXYDEf4PPhzH9pHYo1GqZfT3MPwzBy
/Eic0OvDOALvW3uKvG1mHCwVCpA0U2ca04vNfpuJO40aM6qboK+FRAQvIOOMcqct
IkEO2Kpdi1EbNMdiK+q0Y3NZE4sj/KQPLsbZDDWZwZnOZ0O+/lKPQgCLxhcd4NA8
BxtSRYT91eKhuTxT3b2D2RkQXgXeipZcUbhxWPghSw7RJBzZgYVTy0KTgEMNa4MR
s004npf85OY0KI8jMVvL0k8qDWrycBmxdfGnq/v4PEmF+/509YdL3xBmy/oWkv/U
r7L5t54VCoJxV8ctO+ENYhzwDoJ+hBmetc0xxX0CAwEAAaNTMFEwHQYDVR0OBBYE
FPfGZ1MjpJ9JBm0gzEPjCBAsUU7eMB8GA1UdIwQYMBaAFPfGZ1MjpJ9JBm0gzEPj
CBAsUU7eMA8GA1UdEwEB/wQFMAMBAf8wDQYJKoZIhvcNAQELBQADggEBAIXNSXFB
SlhsWvzWcO6OEXPqLfhbfaRoRep6AKB8qKOOZy4FG7IldsKFdcwtgBMb2zyNsy1v
NqdTSTsmeSuDftVlfB7HZjtYf1tPIu8YSY4434a6C1V9MzsOdXiyTDuQsP0uXQ6a
3zlF1Hcg7vvsKHbzMUVyDlrW3zFAoq56o/Sr4IYDdbF0pY1F35Q9QMrzV2g6ojBN
geC02ZVNHR+gXcKQNS0K2DoARL3YXsR16LYHuExjr4jVo52xGUQuhksz+6BxNgRa
z0SBA/MVy49PyoNg249Fk7qERCPFZblYums9gOr+ugEzKLEb0GKqFGY30sGVrca9
iJM3zymJBA5WzzM=
-----END CERTIFICATE-----
