$ openssl x509 -text -noout < [CERTIFICATE]
Certificate:
    Data:
        Version: 1 (0x0)
        Serial Number:
            2e:66:85:75:a5:c7:f2:e3:7d:60:06:ca:db:9e:74:80:30:64:47:c6
        Signature Algorithm: sha256WithRSAEncryption
        Issuer: C = US, ST = Washington, L = Bellevue, O = Google Inc, CN = Test Device
        Validity
            Not Before: Oct 22 21:55:23 2019 GMT
            Not After : Oct 24 21:55:23 2019 GMT
        Subject: C = US, ST = Washington, L = Bellevue, O = Google Inc, CN = Test Device
        Subject Public Key Info:
            Public Key Algorithm: rsaEncryption
                RSA Public-Key: (2048 bit)
                Modulus:
                    00:da:68:04:bc:cd:2e:f1:86:5b:72:9a:d2:dd:6a:
                    fb:63:76:56:a7:59:a2:97:28:96:37:c1:1a:03:54:
                    94:0f:22:b5:ee:37:7b:7b:93:9b:52:84:00:a4:a5:
                    92:00:b0:0f:ba:fd:cf:ee:45:06:1b:9b:d2:de:3a:
                    dd:c6:75:e0:26:7a:66:a8:df:55:9d:4c:39:42:94:
                    a8:1a:2b:b8:a5:15:66:90:ff:19:50:8c:c1:dc:4c:
                    7b:a3:69:de:c0:c1:3f:a3:ad:18:65:5c:a3:06:78:
                    cf:4b:02:be:d3:6d:66:5f:6b:01:f0:e4:91:64:13:
                    09:df:3b:c1:71:88:5c:aa:9b:d3:72:00:9b:29:ea:
                    fc:69:69:d3:12:d9:66:e4:a9:10:73:d9:af:81:96:
                    a0:04:dd:21:ca:82:cb:8b:f9:60:a2:e9:b8:32:26:
                    d5:e1:e3:75:fd:68:06:1e:19:e5:c7:39:2a:b0:2d:
                    fa:0f:85:12:32:68:4b:2a:16:12:6d:73:50:3d:be:
                    0a:57:3e:f1:63:7f:48:cb:af:4a:9b:e9:f1:67:82:
                    d5:eb:27:00:5d:94:3a:c4:af:b6:cc:64:75:52:df:
                    76:7d:b0:83:42:c8:ec:c4:53:c2:9c:e8:78:5a:e1:
                    46:f5:50:62:d8:65:2c:4a:76:2c:1d:a1:0d:22:11:
                    6e:2f
                Exponent: 65537 (0x10001)
    Signature Algorithm: sha256WithRSAEncryption
         d2:f9:42:45:55:f9:16:31:9c:8b:96:ec:0e:72:5c:48:88:b6:
         93:c3:2d:2b:e0:9a:ac:c7:f1:a6:ff:85:6e:c4:27:a1:bf:0c:
         fb:52:1b:88:ef:c9:d8:8a:78:df:51:fd:28:2b:7b:d5:2b:17:
         71:71:48:ad:7d:e9:52:3a:80:d9:5e:ce:34:09:8d:2a:8c:e3:
         e3:e2:c9:b9:1f:a3:65:f3:90:2e:6d:d4:45:b2:86:3e:58:ba:
         01:7f:35:ed:e6:a4:44:76:cf:54:83:90:51:2b:74:c3:be:b3:
         c5:94:ba:ea:e8:f0:f0:44:64:67:c5:4a:48:a5:78:58:cd:5c:
         12:ad:2f:29:35:02:b9:15:ac:d3:9b:24:3a:a8:0b:de:60:dd:
         ac:4c:bb:d4:52:12:6e:ee:5f:b0:86:71:ad:93:64:09:1e:b6:
         c3:75:4c:35:99:9f:8f:69:d7:36:54:72:ab:a9:45:60:fa:a7:
         9c:6c:b3:98:9d:80:76:ab:45:8b:5c:ce:b5:bf:8f:a1:19:4a:
         27:e2:61:7e:b3:bd:07:71:51:11:fe:78:0f:6f:5e:d5:52:3f:
         b9:06:ef:0a:d9:54:e0:6f:15:b8:8a:33:35:9d:d8:01:fb:73:
         7c:24:8c:66:8e:43:da:ac:2e:8a:9f:1b:32:70:93:ee:58:e4:
         60:68:07:b2
-----BEGIN CERTIFICATE-----
MIIDRzCCAi8CFC5mhXWlx/LjfWAGytuedIAwZEfGMA0GCSqGSIb3DQEBCwUAMGAx
CzAJBgNVBAYTAlVTMRMwEQYDVQQIDApXYXNoaW5ndG9uMREwDwYDVQQHDAhCZWxs
ZXZ1ZTETMBEGA1UECgwKR29vZ2xlIEluYzEUMBIGA1UEAwwLVGVzdCBEZXZpY2Uw
HhcNMTkxMDIyMjE1NTIzWhcNMTkxMDI0MjE1NTIzWjBgMQswCQYDVQQGEwJVUzET
MBEGA1UECAwKV2FzaGluZ3RvbjERMA8GA1UEBwwIQmVsbGV2dWUxEzARBgNVBAoM
Ckdvb2dsZSBJbmMxFDASBgNVBAMMC1Rlc3QgRGV2aWNlMIIBIjANBgkqhkiG9w0B
AQEFAAOCAQ8AMIIBCgKCAQEA2mgEvM0u8YZbcprS3Wr7Y3ZWp1milyiWN8EaA1SU
DyK17jd7e5ObUoQApKWSALAPuv3P7kUGG5vS3jrdxnXgJnpmqN9VnUw5QpSoGiu4
pRVmkP8ZUIzB3Ex7o2newME/o60YZVyjBnjPSwK+021mX2sB8OSRZBMJ3zvBcYhc
qpvTcgCbKer8aWnTEtlm5KkQc9mvgZagBN0hyoLLi/lgoum4MibV4eN1/WgGHhnl
xzkqsC36D4USMmhLKhYSbXNQPb4KVz7xY39Iy69Km+nxZ4LV6ycAXZQ6xK+2zGR1
Ut92fbCDQsjsxFPCnOh4WuFG9VBi2GUsSnYsHaENIhFuLwIDAQABMA0GCSqGSIb3
DQEBCwUAA4IBAQDS+UJFVfkWMZyLluwOclxIiLaTwy0r4Jqsx/Gm/4VuxCehvwz7
UhuI78nYinjfUf0oK3vVKxdxcUitfelSOoDZXs40CY0qjOPj4sm5H6Nl85AubdRF
soY+WLoBfzXt5qREds9Ug5BRK3TDvrPFlLrq6PDwRGRnxUpIpXhYzVwSrS8pNQK5
FazTmyQ6qAveYN2sTLvUUhJu7l+whnGtk2QJHrbDdUw1mZ+Padc2VHKrqUVg+qec
bLOYnYB2q0WLXM61v4+hGUon4mF+s70HcVER/ngPb17VUj+5Bu8K2VTgbxW4ijM1
ndgB+3N8JIxmjkParC6KnxsycJPuWORgaAey
-----END CERTIFICATE-----
